; ModuleID = '49/1119.c'
source_filename = "49/1119.c"
target datalayout = "e-m:e-p270:32:32-p271:32:32-p272:64:64-i64:64-f80:128-n8:16:32:64-S128"
target triple = "x86_64-pc-linux-gnu"

@.str = private unnamed_addr constant [3 x i8] c"%c\00", align 1
@.str.1 = private unnamed_addr constant [2 x i8] c"\0A\00", align 1

; Function Attrs: noinline nounwind uwtable
define dso_local i32 @main() #0 {
  %1 = alloca i32, align 4
  %2 = alloca [510 x i8], align 16
  %3 = alloca i32, align 4
  %4 = alloca i32, align 4
  %5 = alloca i32, align 4
  %6 = alloca i32, align 4
  %7 = alloca i32, align 4
  store i32 0, i32* %1, align 4
  %8 = getelementptr inbounds [510 x i8], [510 x i8]* %2, i64 0, i64 0
  %9 = call i32 (i8*, ...) bitcast (i32 (...)* @gets to i32 (i8*, ...)*)(i8* %8)
  store i32 1, i32* %6, align 4
  br label %10

10:                                               ; preds = %92, %0
  %11 = load i32, i32* %6, align 4
  %12 = sext i32 %11 to i64
  %13 = getelementptr inbounds [510 x i8], [510 x i8]* %2, i64 0, i64 0
  %14 = call i64 @strlen(i8* %13) #3
  %15 = sub i64 %14, 1
  %16 = icmp ult i64 %12, %15
  br i1 %16, label %17, label %95

17:                                               ; preds = %10
  store i32 0, i32* %5, align 4
  br label %18

18:                                               ; preds = %88, %17
  %19 = load i32, i32* %5, align 4
  %20 = sext i32 %19 to i64
  %21 = getelementptr inbounds [510 x i8], [510 x i8]* %2, i64 0, i64 0
  %22 = call i64 @strlen(i8* %21) #3
  %23 = icmp ult i64 %20, %22
  br i1 %23, label %24, label %91

24:                                               ; preds = %18
  %25 = load i32, i32* %6, align 4
  %26 = add nsw i32 %25, 1
  store i32 %26, i32* %3, align 4
  %27 = load i32, i32* %5, align 4
  store i32 %27, i32* %4, align 4
  br label %28

28:                                               ; preds = %57, %24
  %29 = load i32, i32* %4, align 4
  %30 = load i32, i32* %3, align 4
  %31 = sdiv i32 %30, 2
  %32 = sub nsw i32 %31, 1
  %33 = load i32, i32* %5, align 4
  %34 = add nsw i32 %32, %33
  %35 = icmp sle i32 %29, %34
  br i1 %35, label %36, label %60

36:                                               ; preds = %28
  %37 = load i32, i32* %4, align 4
  %38 = sext i32 %37 to i64
  %39 = getelementptr inbounds [510 x i8], [510 x i8]* %2, i64 0, i64 %38
  %40 = load i8, i8* %39, align 1
  %41 = sext i8 %40 to i32
  %42 = load i32, i32* %3, align 4
  %43 = load i32, i32* %4, align 4
  %44 = sub nsw i32 %42, %43
  %45 = sub nsw i32 %44, 1
  %46 = load i32, i32* %5, align 4
  %47 = add nsw i32 %45, %46
  %48 = load i32, i32* %5, align 4
  %49 = add nsw i32 %47, %48
  %50 = sext i32 %49 to i64
  %51 = getelementptr inbounds [510 x i8], [510 x i8]* %2, i64 0, i64 %50
  %52 = load i8, i8* %51, align 1
  %53 = sext i8 %52 to i32
  %54 = icmp ne i32 %41, %53
  br i1 %54, label %55, label %56

55:                                               ; preds = %36
  br label %60

56:                                               ; preds = %36
  br label %57

57:                                               ; preds = %56
  %58 = load i32, i32* %4, align 4
  %59 = add nsw i32 %58, 1
  store i32 %59, i32* %4, align 4
  br label %28

60:                                               ; preds = %55, %28
  %61 = load i32, i32* %4, align 4
  %62 = load i32, i32* %3, align 4
  %63 = sdiv i32 %62, 2
  %64 = load i32, i32* %5, align 4
  %65 = add nsw i32 %63, %64
  %66 = icmp eq i32 %61, %65
  br i1 %66, label %67, label %87

67:                                               ; preds = %60
  %68 = load i32, i32* %5, align 4
  store i32 %68, i32* %4, align 4
  br label %69

69:                                               ; preds = %82, %67
  %70 = load i32, i32* %4, align 4
  %71 = load i32, i32* %5, align 4
  %72 = load i32, i32* %6, align 4
  %73 = add nsw i32 %71, %72
  %74 = icmp sle i32 %70, %73
  br i1 %74, label %75, label %85

75:                                               ; preds = %69
  %76 = load i32, i32* %4, align 4
  %77 = sext i32 %76 to i64
  %78 = getelementptr inbounds [510 x i8], [510 x i8]* %2, i64 0, i64 %77
  %79 = load i8, i8* %78, align 1
  %80 = sext i8 %79 to i32
  %81 = call i32 (i8*, ...) @printf(i8* getelementptr inbounds ([3 x i8], [3 x i8]* @.str, i64 0, i64 0), i32 %80)
  br label %82

82:                                               ; preds = %75
  %83 = load i32, i32* %4, align 4
  %84 = add nsw i32 %83, 1
  store i32 %84, i32* %4, align 4
  br label %69

85:                                               ; preds = %69
  %86 = call i32 (i8*, ...) @printf(i8* getelementptr inbounds ([2 x i8], [2 x i8]* @.str.1, i64 0, i64 0))
  br label %87

87:                                               ; preds = %85, %60
  br label %88

88:                                               ; preds = %87
  %89 = load i32, i32* %5, align 4
  %90 = add nsw i32 %89, 1
  store i32 %90, i32* %5, align 4
  br label %18

91:                                               ; preds = %18
  br label %92

92:                                               ; preds = %91
  %93 = load i32, i32* %6, align 4
  %94 = add nsw i32 %93, 1
  store i32 %94, i32* %6, align 4
  br label %10

95:                                               ; preds = %10
  ret i32 0
}

declare dso_local i32 @gets(...) #1

; Function Attrs: nounwind readonly
declare dso_local i64 @strlen(i8*) #2

declare dso_local i32 @printf(i8*, ...) #1


!llvm.module.flags = !{!0}
!llvm.ident = !{!1}

!0 = !{i32 1, !"wchar_size", i32 4}
!1 = !{!"clang version 10.0.0-4ubuntu1 "}
